EXPORTS 
	??_R0?AV?$_Iosb@H@std@@@8 	 DATA
	??_R0?AV?$_LaunchPad@V?$unique_ptr@V?$tuple@P8TimeTicker@@AEXXZV?$reference_wrapper@VTimeTicker@@@std@@@std@@U?$default_delete@V?$tuple@P8TimeTicker@@AEXXZV?$reference_wrapper@VTimeTicker@@@std@@@std@@@2@@std@@@std@@@8 	 DATA
	??_R0?AV?$_LaunchPad@V?$unique_ptr@V?$tuple@P8Worker@@AEXXZV?$reference_wrapper@VWorker@@@std@@@std@@U?$default_delete@V?$tuple@P8Worker@@AEXXZV?$reference_wrapper@VWorker@@@std@@@std@@@2@@std@@@std@@@8 	 DATA
	??_R0?AV?$basic_ios@DU?$char_traits@D@std@@@std@@@8 	 DATA
	??_R0?AV?$basic_iostream@DU?$char_traits@D@std@@@std@@@8 	 DATA
	??_R0?AV?$basic_istream@DU?$char_traits@D@std@@@std@@@8 	 DATA
	??_R0?AV?$basic_ostream@DU?$char_traits@D@std@@@std@@@8 	 DATA
	??_R0?AV?$basic_streambuf@DU?$char_traits@D@std@@@std@@@8 	 DATA
	??_R0?AV?$basic_stringbuf@DU?$char_traits@D@std@@V?$allocator@D@2@@std@@@8 	 DATA
	??_R0?AV?$basic_stringstream@DU?$char_traits@D@std@@V?$allocator@D@2@@std@@@8 	 DATA
	??_R0?AVCallback@@@8 	 DATA
	??_R0?AVTimer@@@8 	 DATA
	??_R0?AVWorker@@@8 	 DATA
	??_R0?AV_Pad@std@@@8 	 DATA
	??_R0?AVbad_cast@std@@@8 	 DATA
	??_R0?AVexception@std@@@8 	 DATA
	??_R0?AVios_base@std@@@8 	 DATA
	?_OptionsStorage@?1??__local_stdio_printf_options@@9@4_KA 	 DATA
	?_Psave@?$_Facetptr@V?$ctype@D@std@@@std@@2PBVfacet@locale@2@B 	 DATA
	?nRandCount@Rand@@2IA 	 DATA
	??$?5DU?$char_traits@D@std@@V?$allocator@D@1@@std@@YAAAV?$basic_istream@DU?$char_traits@D@std@@@0@$$QAV10@AAV?$basic_string@DU?$char_traits@D@std@@V?$allocator@D@2@@0@@Z
	??$_Buynode@ABQAVTimer@@@?$_List_buy@PAVTimer@@V?$allocator@PAVTimer@@@std@@@std@@QAEPAU?$_List_node@PAVTimer@@PAX@1@PAU21@0ABQAVTimer@@@Z
	??$_Buynode@ABUpiecewise_construct_t@std@@V?$tuple@AB_K@2@V?$tuple@$$V@2@@?$_Tree_comp_alloc@V?$_Tmap_traits@_KV?$list@PAVTimer@@V?$allocator@PAVTimer@@@std@@@std@@U?$less@_K@2@V?$allocator@U?$pair@$$CB_KV?$list@PAVTimer@@V?$allocator@PAVTimer@@@std@@@std@@@std@@@2@$0A@@std@@@std@@QAEPAU?$_Tree_node@U?$pair@$$CB_KV?$list@PAVTimer@@V?$allocator@PAVTimer@@@std@@@std@@@std@@PAX@1@ABUpiecewise_construct_t@1@$$QAV?$tuple@AB_K@1@$$QAV?$tuple@$$V@1@@Z
	??$_Destroy_range@V?$allocator@V?$basic_string@DU?$char_traits@D@std@@V?$allocator@D@2@@std@@@std@@@std@@YAXPAV?$basic_string@DU?$char_traits@D@std@@V?$allocator@D@2@@0@0AAV?$allocator@V?$basic_string@DU?$char_traits@D@std@@V?$allocator@D@2@@std@@@0@@Z
	??$_Emplace_reallocate@ABQAVWorker@@@?$vector@PAVWorker@@V?$allocator@PAVWorker@@@std@@@std@@QAEPAPAVWorker@@QAPAV2@ABQAV2@@Z
	??$_Emplace_reallocate@ABV?$basic_string@DU?$char_traits@D@std@@V?$allocator@D@2@@std@@@?$vector@V?$basic_string@DU?$char_traits@D@std@@V?$allocator@D@2@@std@@V?$allocator@V?$basic_string@DU?$char_traits@D@std@@V?$allocator@D@2@@std@@@2@@std@@QAEPAV?$basic_string@DU?$char_traits@D@std@@V?$allocator@D@2@@1@QAV21@ABV21@@Z
	??$_Emplace_reallocate@H@?$vector@HV?$allocator@H@std@@@std@@QAEPAHQAH$$QAH@Z
	??$_Emplace_reallocate@V?$basic_string@DU?$char_traits@D@std@@V?$allocator@D@2@@std@@@?$vector@V?$basic_string@DU?$char_traits@D@std@@V?$allocator@D@2@@std@@V?$allocator@V?$basic_string@DU?$char_traits@D@std@@V?$allocator@D@2@@std@@@2@@std@@QAEPAV?$basic_string@DU?$char_traits@D@std@@V?$allocator@D@2@@1@QAV21@$$QAV21@@Z
	??$_Insert_at@AAU?$pair@$$CB_KV?$list@PAVTimer@@V?$allocator@PAVTimer@@@std@@@std@@@std@@PAU?$_Tree_node@U?$pair@$$CB_KV?$list@PAVTimer@@V?$allocator@PAVTimer@@@std@@@std@@@std@@PAX@2@@?$_Tree@V?$_Tmap_traits@_KV?$list@PAVTimer@@V?$allocator@PAVTimer@@@std@@@std@@U?$less@_K@2@V?$allocator@U?$pair@$$CB_KV?$list@PAVTimer@@V?$allocator@PAVTimer@@@std@@@std@@@std@@@2@$0A@@std@@@std@@IAE?AV?$_Tree_iterator@V?$_Tree_val@U?$_Tree_simple_types@U?$pair@$$CB_KV?$list@PAVTimer@@V?$allocator@PAVTimer@@@std@@@std@@@std@@@std@@@std@@@1@_NPAU?$_Tree_node@U?$pair@$$CB_KV?$list@PAVTimer@@V?$allocator@PAVTimer@@@std@@@std@@@std@@PAX@1@AAU?$pair@$$CB_KV?$list@PAVTimer@@V?$allocator@PAVTimer@@@std@@@std@@@1@1@Z
	??$_Insert_hint@AAU?$pair@$$CB_KV?$list@PAVTimer@@V?$allocator@PAVTimer@@@std@@@std@@@std@@PAU?$_Tree_node@U?$pair@$$CB_KV?$list@PAVTimer@@V?$allocator@PAVTimer@@@std@@@std@@@std@@PAX@2@@?$_Tree@V?$_Tmap_traits@_KV?$list@PAVTimer@@V?$allocator@PAVTimer@@@std@@@std@@U?$less@_K@2@V?$allocator@U?$pair@$$CB_KV?$list@PAVTimer@@V?$allocator@PAVTimer@@@std@@@std@@@std@@@2@$0A@@std@@@std@@IAE?AV?$_Tree_iterator@V?$_Tree_val@U?$_Tree_simple_types@U?$pair@$$CB_KV?$list@PAVTimer@@V?$allocator@PAVTimer@@@std@@@std@@@std@@@std@@@std@@@1@V?$_Tree_const_iterator@V?$_Tree_val@U?$_Tree_simple_types@U?$pair@$$CB_KV?$list@PAVTimer@@V?$allocator@PAVTimer@@@std@@@std@@@std@@@std@@@std@@@1@AAU?$pair@$$CB_KV?$list@PAVTimer@@V?$allocator@PAVTimer@@@std@@@std@@@1@PAU?$_Tree_node@U?$pair@$$CB_KV?$list@PAVTimer@@V?$allocator@PAVTimer@@@std@@@std@@@std@@PAX@1@@Z
	??$_Insert_nohint@AAU?$pair@$$CB_KV?$list@PAVTimer@@V?$allocator@PAVTimer@@@std@@@std@@@std@@PAU?$_Tree_node@U?$pair@$$CB_KV?$list@PAVTimer@@V?$allocator@PAVTimer@@@std@@@std@@@std@@PAX@2@@?$_Tree@V?$_Tmap_traits@_KV?$list@PAVTimer@@V?$allocator@PAVTimer@@@std@@@std@@U?$less@_K@2@V?$allocator@U?$pair@$$CB_KV?$list@PAVTimer@@V?$allocator@PAVTimer@@@std@@@std@@@std@@@2@$0A@@std@@@std@@IAE?AU?$pair@V?$_Tree_iterator@V?$_Tree_val@U?$_Tree_simple_types@U?$pair@$$CB_KV?$list@PAVTimer@@V?$allocator@PAVTimer@@@std@@@std@@@std@@@std@@@std@@@std@@_N@1@_NAAU?$pair@$$CB_KV?$list@PAVTimer@@V?$allocator@PAVTimer@@@std@@@std@@@1@PAU?$_Tree_node@U?$pair@$$CB_KV?$list@PAVTimer@@V?$allocator@PAVTimer@@@std@@@std@@@std@@PAX@1@@Z
	??$_Reusenode@ABQAVTimer@@@?$list@PAVTimer@@V?$allocator@PAVTimer@@@std@@@std@@QAEXV?$_List_iterator@V?$_List_val@U?$_List_simple_types@PAVTimer@@@std@@@std@@@1@ABQAVTimer@@@Z
	??$_Traits_compare@U?$char_traits@D@std@@@std@@YAHQBDI0I@Z
	??$_Uninitialized_move@PAV?$basic_string@DU?$char_traits@D@std@@V?$allocator@D@2@@std@@PAV12@V?$allocator@V?$basic_string@DU?$char_traits@D@std@@V?$allocator@D@2@@std@@@2@@std@@YAPAV?$basic_string@DU?$char_traits@D@std@@V?$allocator@D@2@@0@QAV10@0PAV10@AAV?$allocator@V?$basic_string@DU?$char_traits@D@std@@V?$allocator@D@2@@std@@@0@@Z
	??$_snprintf_s@$0CB@@@YAHAAY0CB@DIPBDZZ
	??$assign@V?$_List_const_iterator@V?$_List_val@U?$_List_simple_types@PAVTimer@@@std@@@std@@@std@@X@?$list@PAVTimer@@V?$allocator@PAVTimer@@@std@@@std@@QAEXV?$_List_const_iterator@V?$_List_val@U?$_List_simple_types@PAVTimer@@@std@@@std@@@1@0@Z
	??$use_facet@V?$ctype@D@std@@@std@@YAABV?$ctype@D@0@ABVlocale@0@@Z
	??0?$basic_string@DU?$char_traits@D@std@@V?$allocator@D@2@@std@@QAE@$$QAV01@@Z
	??0?$basic_string@DU?$char_traits@D@std@@V?$allocator@D@2@@std@@QAE@ABV01@@Z
	??0CDatetime@@QAE@ABV?$basic_string@DU?$char_traits@D@std@@V?$allocator@D@2@@std@@0_N@Z
	??0CDatetime@@QAE@XZ
	??0CDatetime@@QAE@_J@Z
	??0CDuration@@QAE@IIII@Z
	??0CurlWrap@@QAE@XZ
	??0TimeTicker@@QAE@XZ
	??0Timer@@QAE@W4eTimerType@0@@Z
	??0Timer@@QAE@XZ
	??0Worker@@QAE@XZ
	??0WorkerPool@@QAE@XZ
	??0bad_cast@std@@QAE@ABV01@@Z
	??0bad_cast@std@@QAE@XZ
	??0exception@std@@QAE@ABV01@@Z
	??1?$_LaunchPad@V?$unique_ptr@V?$tuple@P8TimeTicker@@AEXXZV?$reference_wrapper@VTimeTicker@@@std@@@std@@U?$default_delete@V?$tuple@P8TimeTicker@@AEXXZV?$reference_wrapper@VTimeTicker@@@std@@@std@@@2@@std@@@std@@QAE@XZ
	??1?$_LaunchPad@V?$unique_ptr@V?$tuple@P8Worker@@AEXXZV?$reference_wrapper@VWorker@@@std@@@std@@U?$default_delete@V?$tuple@P8Worker@@AEXXZV?$reference_wrapper@VWorker@@@std@@@std@@@2@@std@@@std@@QAE@XZ
	??1?$basic_string@DU?$char_traits@D@std@@V?$allocator@D@2@@std@@QAE@XZ
	??1?$basic_stringbuf@DU?$char_traits@D@std@@V?$allocator@D@2@@std@@UAE@XZ
	??1?$basic_stringstream@DU?$char_traits@D@std@@V?$allocator@D@2@@std@@UAE@XZ
	??1?$deque@V?$shared_ptr@VTaskInterface@@@std@@V?$allocator@V?$shared_ptr@VTaskInterface@@@std@@@2@@std@@QAE@XZ
	??1?$list@PAVTimer@@V?$allocator@PAVTimer@@@std@@@std@@QAE@XZ
	??1?$lock_guard@Vmutex@std@@@std@@QAE@XZ
	??1?$shared_ptr@VTaskInterface@@@std@@QAE@XZ
	??1?$unique_lock@Vmutex@std@@@std@@QAE@XZ
	??1?$unique_ptr@V?$tuple@P8TimeTicker@@AEXXZV?$reference_wrapper@VTimeTicker@@@std@@@std@@U?$default_delete@V?$tuple@P8TimeTicker@@AEXXZV?$reference_wrapper@VTimeTicker@@@std@@@std@@@2@@std@@QAE@XZ
	??1?$unique_ptr@V?$tuple@P8Worker@@AEXXZV?$reference_wrapper@VWorker@@@std@@@std@@U?$default_delete@V?$tuple@P8Worker@@AEXXZV?$reference_wrapper@VWorker@@@std@@@std@@@2@@std@@QAE@XZ
	??1?$unique_ptr@V_Facet_base@std@@U?$default_delete@V_Facet_base@std@@@2@@std@@QAE@XZ
	??1?$vector@V?$basic_string@DU?$char_traits@D@std@@V?$allocator@D@2@@std@@V?$allocator@V?$basic_string@DU?$char_traits@D@std@@V?$allocator@D@2@@std@@@2@@std@@QAE@XZ
	??1Callback@@UAE@XZ
	??1CurlWrap@@QAE@XZ
	??1Timer@@UAE@XZ
	??1Worker@@UAE@XZ
	??1WorkerPool@@QAE@XZ
	??1_Auto_cnd@std@@QAE@XZ
	??1_Auto_mtx@std@@QAE@XZ
	??1_Sentry_base@?$basic_istream@DU?$char_traits@D@std@@@std@@QAE@XZ
	??1bad_cast@std@@UAE@XZ
	??1condition_variable@std@@QAE@XZ
	??1exception@std@@UAE@XZ
	??1locale@std@@QAE@XZ
	??1mutex@std@@QAE@XZ
	??1sentry@?$basic_istream@DU?$char_traits@D@std@@@std@@QAE@XZ
	??1thread@std@@QAE@XZ
	??4CDatetime@@QAEAAV0@AAV0@@Z
	??4CDatetime@@QAEAAV0@_J@Z
	??8CDatetime@@QAE_NABV0@@Z
	??E?$_Tree_const_iterator@V?$_Tree_val@U?$_Tree_simple_types@U?$pair@$$CB_KV?$list@PAVTimer@@V?$allocator@PAVTimer@@@std@@@std@@@std@@@std@@@std@@@std@@QAEAAV01@XZ
	??F?$_Tree_const_iterator@V?$_Tree_val@U?$_Tree_simple_types@U?$pair@$$CB_KV?$list@PAVTimer@@V?$allocator@PAVTimer@@@std@@@std@@@std@@@std@@@std@@@std@@QAEAAV01@XZ
	??GCDatetime@@QAE?AV0@AAVCDuration@@@Z
	??GCDatetime@@QAE_JABV0@@Z
	??HCDatetime@@QAE?AV0@AAVCDuration@@@Z
	??R?$less@_K@std@@QBE_NAB_K0@Z
	??YCDatetime@@QAEAAV0@AAVCDuration@@@Z
	??ZCDatetime@@QAEAAV0@AAVCDuration@@@Z
	??_9Worker@@$B3AE
	??_D?$basic_stringstream@DU?$char_traits@D@std@@V?$allocator@D@2@@std@@QAEXXZ
	?AddHeader@CurlWrap@@QAEXAAV?$map@V?$basic_string@DU?$char_traits@D@std@@V?$allocator@D@2@@std@@V12@U?$less@V?$basic_string@DU?$char_traits@D@std@@V?$allocator@D@2@@std@@@2@V?$allocator@U?$pair@$$CBV?$basic_string@DU?$char_traits@D@std@@V?$allocator@D@2@@std@@V12@@std@@@2@@std@@@Z
	?AddParam@CurlWrap@@QAEXPBD0@Z
	?AddTask@Worker@@QAEXV?$shared_ptr@VTaskInterface@@@std@@@Z
	?AddTask@WorkerPool@@QAEXV?$shared_ptr@VTaskInterface@@@std@@@Z
	?DeHtmlize@StdStrUtils@@SAPADPAD@Z
	?EndsWith@StdStrUtils@@SA_NABV?$basic_string@DU?$char_traits@D@std@@V?$allocator@D@2@@std@@0_N@Z
	?EqualsNoCase@StdStrUtils@@SA_NABV?$basic_string@DU?$char_traits@D@std@@V?$allocator@D@2@@std@@0@Z
	?Format@StdStrUtils@@SA?AV?$basic_string@DU?$char_traits@D@std@@V?$allocator@D@2@@std@@PBDZZ
	?FormatV@StdStrUtils@@SA?AV?$basic_string@DU?$char_traits@D@std@@V?$allocator@D@2@@std@@PBDPAD@Z
	?FreeHeaders@CurlWrap@@QAEXPAUcurl_slist@@@Z
	?GetHandle@Worker@@QAEPAVHandleInterface@@XZ
	?GetIndex@Worker@@QAEIXZ
	?GetStatusCode@CurlWrap@@QAEJXZ
	?GetWorkerCount@WorkerPool@@QAEIXZ
	?Handle@Worker@@UAEXXZ
	?HtmlEscaping@StdStrUtils@@SAPADPAD@Z
	?Htmlize@StdStrUtils@@SAPADPAD@Z
	?HttpGet@CurlWrap@@QAEHABV?$basic_string@DU?$char_traits@D@std@@V?$allocator@D@2@@std@@AAV23@@Z
	?HttpPost@CurlWrap@@QAEHABV?$basic_string@DU?$char_traits@D@std@@V?$allocator@D@2@@std@@0AAV23@@Z
	?Init@WorkerPool@@QAEXPAVIWorkerFactory@@IPAVIHandleFactory@@@Z
	?Int2Str@StdStrUtils@@SA?AV?$basic_string@DU?$char_traits@D@std@@V?$allocator@D@2@@std@@_J@Z
	?IsQueueEmpty@Worker@@QAE_NXZ
	?Left@StdStrUtils@@SA?AV?$basic_string@DU?$char_traits@D@std@@V?$allocator@D@2@@std@@ABV23@I@Z
	?Mid@StdStrUtils@@SA?AV?$basic_string@DU?$char_traits@D@std@@V?$allocator@D@2@@std@@ABV23@II@Z
	?Replace@StdStrUtils@@SAHAAV?$basic_string@DU?$char_traits@D@std@@V?$allocator@D@2@@std@@ABV23@1@Z
	?Replace@StdStrUtils@@SAHAAV?$basic_string@DU?$char_traits@D@std@@V?$allocator@D@2@@std@@DD@Z
	?Reply@CurlWrap@@SAIPAXII0@Z
	?Right@StdStrUtils@@SA?AV?$basic_string@DU?$char_traits@D@std@@V?$allocator@D@2@@std@@ABV23@I@Z
	?Run@Worker@@UAEXXZ
	?SetConnectTimeout@CurlWrap@@QAEXH@Z
	?SetHandle@Worker@@QAEXPAVHandleInterface@@@Z
	?SetIndex@Worker@@QAEXI@Z
	?SetSSLVerify@CurlWrap@@QAEX_N@Z
	?SetTimeout@CurlWrap@@QAEXH@Z
	?SplitString@StdStrUtils@@SAHABV?$basic_string@DU?$char_traits@D@std@@V?$allocator@D@2@@std@@AAV?$vector@V?$basic_string@DU?$char_traits@D@std@@V?$allocator@D@2@@std@@V?$allocator@V?$basic_string@DU?$char_traits@D@std@@V?$allocator@D@2@@std@@@2@@3@0@Z
	?SplitStringToInt@StdStrUtils@@SAHABV?$basic_string@DU?$char_traits@D@std@@V?$allocator@D@2@@std@@AAV?$vector@HV?$allocator@H@std@@@3@0@Z
	?SplitStringTrim@StdStrUtils@@SAHABV?$basic_string@DU?$char_traits@D@std@@V?$allocator@D@2@@std@@AAV?$vector@V?$basic_string@DU?$char_traits@D@std@@V?$allocator@D@2@@std@@V?$allocator@V?$basic_string@DU?$char_traits@D@std@@V?$allocator@D@2@@std@@@2@@3@0@Z
	?Start@Worker@@QAEXXZ
	?Start@WorkerPool@@QAEXXZ
	?StartsWith@StdStrUtils@@SA_NABV?$basic_string@DU?$char_traits@D@std@@V?$allocator@D@2@@std@@0_N@Z
	?Stop@Worker@@QAEXXZ
	?Stop@WorkerPool@@QAEXXZ
	?Str2Int@StdStrUtils@@SA_JABV?$basic_string@DU?$char_traits@D@std@@V?$allocator@D@2@@std@@@Z
	?ToLower@StdStrUtils@@SAHH@Z
	?ToLower@StdStrUtils@@SAXAAV?$basic_string@DU?$char_traits@D@std@@V?$allocator@D@2@@std@@@Z
	?ToUpper@StdStrUtils@@SAHH@Z
	?ToUpper@StdStrUtils@@SAXAAV?$basic_string@DU?$char_traits@D@std@@V?$allocator@D@2@@std@@@Z
	?Trim@StdStrUtils@@SAAAV?$basic_string@DU?$char_traits@D@std@@V?$allocator@D@2@@std@@AAV23@@Z
	?TrimLeft@StdStrUtils@@SAAAV?$basic_string@DU?$char_traits@D@std@@V?$allocator@D@2@@std@@AAV23@@Z
	?TrimRight@StdStrUtils@@SAAAV?$basic_string@DU?$char_traits@D@std@@V?$allocator@D@2@@std@@AAV23@@Z
	?TrimString@StdStrUtils@@SA?AV?$basic_string@DU?$char_traits@D@std@@V?$allocator@D@2@@std@@ABV23@0@Z
	?_Buyheadnode@?$_Tree_comp_alloc@V?$_Tmap_traits@_KV?$list@PAVTimer@@V?$allocator@PAVTimer@@@std@@@std@@U?$less@_K@2@V?$allocator@U?$pair@$$CB_KV?$list@PAVTimer@@V?$allocator@PAVTimer@@@std@@@std@@@std@@@2@$0A@@std@@@std@@QAEPAU?$_Tree_node@U?$pair@$$CB_KV?$list@PAVTimer@@V?$allocator@PAVTimer@@@std@@@std@@@std@@PAX@2@XZ
	?_Buynode0@?$_List_alloc@U?$_List_base_types@PAVTimer@@V?$allocator@PAVTimer@@@std@@@std@@@std@@QAEPAU?$_List_node@PAVTimer@@PAX@2@PAU32@0@Z
	?_Buynode0@?$_Tree_comp_alloc@V?$_Tmap_traits@_KV?$list@PAVTimer@@V?$allocator@PAVTimer@@@std@@@std@@U?$less@_K@2@V?$allocator@U?$pair@$$CB_KV?$list@PAVTimer@@V?$allocator@PAVTimer@@@std@@@std@@@std@@@2@$0A@@std@@@std@@QAEPAU?$_Tree_node@U?$pair@$$CB_KV?$list@PAVTimer@@V?$allocator@PAVTimer@@@std@@@std@@@std@@PAX@2@XZ
	?_Call_func@_Pad@std@@CGIPAX@Z
	?_Change_array@?$vector@V?$basic_string@DU?$char_traits@D@std@@V?$allocator@D@2@@std@@V?$allocator@V?$basic_string@DU?$char_traits@D@std@@V?$allocator@D@2@@std@@@2@@std@@AAEXQAV?$basic_string@DU?$char_traits@D@std@@V?$allocator@D@2@@2@II@Z
	?_Destroy@?$vector@V?$basic_string@DU?$char_traits@D@std@@V?$allocator@D@2@@std@@V?$allocator@V?$basic_string@DU?$char_traits@D@std@@V?$allocator@D@2@@std@@@2@@std@@AAEXPAV?$basic_string@DU?$char_traits@D@std@@V?$allocator@D@2@@2@0@Z
	?_Destroy_if_node@?$_Tree@V?$_Tmap_traits@_KV?$list@PAVTimer@@V?$allocator@PAVTimer@@@std@@@std@@U?$less@_K@2@V?$allocator@U?$pair@$$CB_KV?$list@PAVTimer@@V?$allocator@PAVTimer@@@std@@@std@@@std@@@2@$0A@@std@@@std@@IAEXPAU?$_Tree_node@U?$pair@$$CB_KV?$list@PAVTimer@@V?$allocator@PAVTimer@@@std@@@std@@@std@@PAX@2@@Z
	?_Erase@?$_Tree@V?$_Tmap_traits@_KV?$list@PAVTimer@@V?$allocator@PAVTimer@@@std@@@std@@U?$less@_K@2@V?$allocator@U?$pair@$$CB_KV?$list@PAVTimer@@V?$allocator@PAVTimer@@@std@@@std@@@std@@@2@$0A@@std@@@std@@IAEXPAU?$_Tree_node@U?$pair@$$CB_KV?$list@PAVTimer@@V?$allocator@PAVTimer@@@std@@@std@@@std@@PAX@2@@Z
	?_Freenode0@?$_Tree_comp_alloc@V?$_Tmap_traits@_KV?$list@PAVTimer@@V?$allocator@PAVTimer@@@std@@@std@@U?$less@_K@2@V?$allocator@U?$pair@$$CB_KV?$list@PAVTimer@@V?$allocator@PAVTimer@@@std@@@std@@@std@@@2@$0A@@std@@@std@@QAEXPAU?$_Tree_node@U?$pair@$$CB_KV?$list@PAVTimer@@V?$allocator@PAVTimer@@@std@@@std@@@std@@PAX@2@@Z
	?_Go@?$_LaunchPad@V?$unique_ptr@V?$tuple@P8TimeTicker@@AEXXZV?$reference_wrapper@VTimeTicker@@@std@@@std@@U?$default_delete@V?$tuple@P8TimeTicker@@AEXXZV?$reference_wrapper@VTimeTicker@@@std@@@std@@@2@@std@@@std@@UAEXXZ
	?_Go@?$_LaunchPad@V?$unique_ptr@V?$tuple@P8Worker@@AEXXZV?$reference_wrapper@VWorker@@@std@@@std@@U?$default_delete@V?$tuple@P8Worker@@AEXXZV?$reference_wrapper@VWorker@@@std@@@std@@@2@@std@@@std@@UAEXXZ
	?_Growmap@?$deque@V?$shared_ptr@VTaskInterface@@@std@@V?$allocator@V?$shared_ptr@VTaskInterface@@@std@@@2@@std@@IAEXI@Z
	?_Lrotate@?$_Tree_val@U?$_Tree_simple_types@U?$pair@$$CB_KV?$list@PAVTimer@@V?$allocator@PAVTimer@@@std@@@std@@@std@@@std@@@std@@QAEXPAU?$_Tree_node@U?$pair@$$CB_KV?$list@PAVTimer@@V?$allocator@PAVTimer@@@std@@@std@@@std@@PAX@2@@Z
	?_Rrotate@?$_Tree_val@U?$_Tree_simple_types@U?$pair@$$CB_KV?$list@PAVTimer@@V?$allocator@PAVTimer@@@std@@@std@@@std@@@std@@@std@@QAEXPAU?$_Tree_node@U?$pair@$$CB_KV?$list@PAVTimer@@V?$allocator@PAVTimer@@@std@@@std@@@std@@PAX@2@@Z
	?_Xlen@?$basic_string@DU?$char_traits@D@std@@V?$allocator@D@2@@std@@SAXXZ
	?_Xlen@?$deque@V?$shared_ptr@VTaskInterface@@@std@@V?$allocator@V?$shared_ptr@VTaskInterface@@@std@@@2@@std@@IBEXXZ
	?_Xlength@?$vector@HV?$allocator@H@std@@@std@@CAXXZ
	?_Xlength@?$vector@PAVWorker@@V?$allocator@PAVWorker@@@std@@@std@@CAXXZ
	?_Xlength@?$vector@V?$basic_string@DU?$char_traits@D@std@@V?$allocator@D@2@@std@@V?$allocator@V?$basic_string@DU?$char_traits@D@std@@V?$allocator@D@2@@std@@@2@@std@@CAXXZ
	?_Xran@?$_String_val@U?$_Simple_types@D@std@@@std@@SAXXZ
	?add@CDatetime@@QAE?AV1@AAVCDuration@@@Z
	?addTimer@TimeTicker@@QAEXPAVTimer@@@Z
	?allocate@?$allocator@D@std@@QAEPADI@Z
	?allocate@?$allocator@V?$basic_string@DU?$char_traits@D@std@@V?$allocator@D@2@@std@@@std@@QAEPAV?$basic_string@DU?$char_traits@D@std@@V?$allocator@D@2@@2@I@Z
	?append@?$basic_string@DU?$char_traits@D@std@@V?$allocator@D@2@@std@@QAEAAV12@QBDI@Z
	?assign@?$basic_string@DU?$char_traits@D@std@@V?$allocator@D@2@@std@@QAEAAV12@QBDI@Z
	?clear@?$list@PAVTimer@@V?$allocator@PAVTimer@@@std@@@std@@QAEXXZ
	?deallocate@?$allocator@D@std@@QAEXQADI@Z
	?deallocate@?$allocator@V?$basic_string@DU?$char_traits@D@std@@V?$allocator@D@2@@std@@@std@@QAEXQAV?$basic_string@DU?$char_traits@D@std@@V?$allocator@D@2@@2@I@Z
	?erase@?$basic_string@DU?$char_traits@D@std@@V?$allocator@D@2@@std@@QAE?AV?$_String_iterator@V?$_String_val@U?$_Simple_types@D@std@@@std@@@2@V?$_String_const_iterator@V?$_String_val@U?$_Simple_types@D@std@@@std@@@2@0@Z
	?flushTime@CDatetime@@QAEXXZ
	?generateStdUUID@CUUID@@SA?AV?$basic_string@DU?$char_traits@D@std@@V?$allocator@D@2@@std@@XZ
	?generateUUID@CUUID@@SA?AV?$basic_string@DU?$char_traits@D@std@@V?$allocator@D@2@@std@@XZ
	?getCurTimePassSec@CDatetime@@QAEHXZ
	?getDay@CDatetime@@QBEHXZ
	?getDayOfWeek@CDatetime@@QBEHXZ
	?getHour@CDatetime@@QBEHXZ
	?getMillisecond@CDatetime@@QBE_JXZ
	?getMillisecond@Timer@@SA_KXZ
	?getMin@CDatetime@@QBEHXZ
	?getMonth@CDatetime@@QBEHXZ
	?getNextTime@Timer@@QAE_KXZ
	?getSec@CDatetime@@QBE_JXZ
	?getSortTime@Timer@@QAE_KXZ
	?getStrTime@CDatetime@@QBE?AV?$basic_string@DU?$char_traits@D@std@@V?$allocator@D@2@@std@@PBD@Z
	?getTodayBeginTime@CTime@@SA_JXZ
	?getTodayEndTime@CTime@@SA_JXZ
	?getTodayLeftSecond@CTime@@SAHXZ
	?getType@Timer@@QAE?AW4eTimerType@1@XZ
	?getWeekday@CDatetime@@QBE?AV?$basic_string@DU?$char_traits@D@std@@V?$allocator@D@2@@std@@XZ
	?getYday@CDatetime@@QBEHXZ
	?getYear@CDatetime@@QBEHXZ
	?overflow@?$basic_stringbuf@DU?$char_traits@D@std@@V?$allocator@D@2@@std@@MAEHH@Z
	?pbackfail@?$basic_stringbuf@DU?$char_traits@D@std@@V?$allocator@D@2@@std@@MAEHH@Z
	?pop@?$queue@V?$shared_ptr@VTaskInterface@@@std@@V?$deque@V?$shared_ptr@VTaskInterface@@@std@@V?$allocator@V?$shared_ptr@VTaskInterface@@@std@@@2@@2@@std@@QAEXXZ
	?push_back@?$basic_string@DU?$char_traits@D@std@@V?$allocator@D@2@@std@@QAEXD@Z
	?randInt@Rand@@SAIII@Z
	?randString@Rand@@SA?AV?$basic_string@DU?$char_traits@D@std@@V?$allocator@D@2@@std@@I@Z
	?replace@?$basic_string@DU?$char_traits@D@std@@V?$allocator@D@2@@std@@QAEAAV12@IIQBDI@Z
	?reset@Timer@@QAEXXZ
	?run@TimeTicker@@AAEXXZ
	?seekoff@?$basic_stringbuf@DU?$char_traits@D@std@@V?$allocator@D@2@@std@@MAE?AV?$fpos@U_Mbstatet@@@2@_JHH@Z
	?seekpos@?$basic_stringbuf@DU?$char_traits@D@std@@V?$allocator@D@2@@std@@MAE?AV?$fpos@U_Mbstatet@@@2@V32@H@Z
	?setSec@CDatetime@@QAEX_J@Z
	?setTimer@Timer@@QAEX_KP6AXPAX@Z1@Z
	?setTimerAfter@Timer@@QAEX_K0P6AXPAX@Z1@Z
	?setType@Timer@@QAEXW4eTimerType@1@@Z
	?start@TimeTicker@@QAEXXZ
	?stop@TimeTicker@@QAEXXZ
	?strptime@CTime@@SAPADPBD0PAUtm@@@Z
	?sub@CDatetime@@QAE?AV1@AAVCDuration@@@Z
	?underflow@?$basic_stringbuf@DU?$char_traits@D@std@@V?$allocator@D@2@@std@@MAEHXZ
	?what@exception@std@@UBEPBDXZ
	__local_stdio_printf_options
